target datalayout = "e-m:e-p270:32:32-p271:32:32-p272:64:64-i64:64-i128:128-f80:128-n8:16:32:64-S128"
target triple = "x86_64-pc-linux-gnu"

%"class.std::__cxx11::basic_string" = type { %"struct.std::__cxx11::basic_string<char>::_Alloc_hider", i64, %union.anon }
%"struct.std::__cxx11::basic_string<char>::_Alloc_hider" = type { ptr }
%union.anon = type { i64, [8 x i8] }
%"class.std::optional.132" = type { %"struct.std::_Optional_base.133" }
%"struct.std::_Optional_base.133" = type { %"struct.std::_Optional_payload.135" }
%"struct.std::_Optional_payload.135" = type { %"struct.std::_Optional_payload.base.139", [7 x i8] }
%"struct.std::_Optional_payload.base.139" = type { %"struct.std::_Optional_payload_base.base.138" }
%"struct.std::_Optional_payload_base.base.138" = type <{ %"union.std::_Optional_payload_base<std::__cxx11::basic_string<char>>::_Storage", i8 }>
%"union.std::_Optional_payload_base<std::__cxx11::basic_string<char>>::_Storage" = type { %"class.std::__cxx11::basic_string" }
%"struct.Luau::TypePackIterator" = type { ptr, ptr, i64, ptr }
%"struct.Luau::Type" = type { %"class.Luau::Variant.968", i8, [7 x i8], %"class.std::optional.132", ptr }
%"class.Luau::Variant.968" = type { i32, [4 x i8], [336 x i8] }

; Function Attrs: mustprogress nounwind uwtable
define linkonce_odr dso_local noundef ptr @_ZNK4Luau7VariantIJNS_9Unifiable5BoundIPKNS_4TypeEEENS1_5ErrorIS5_EENS_8FreeTypeENS_11GenericTypeENS_13PrimitiveTypeENS_13SingletonTypeENS_11BlockedTypeENS_20PendingExpansionTypeENS_12FunctionTypeENS_9TableTypeENS_13MetatableTypeENS_9ClassTypeENS_7AnyTypeENS_9UnionTypeENS_16IntersectionTypeENS_8LazyTypeENS_11UnknownTypeENS_9NeverTypeENS_12NegationTypeENS_12NoRefineTypeENS_24TypeFunctionInstanceTypeEEE6get_ifIS8_EEPKT_v(ptr noundef nonnull align 8 dereferenceable(344) %0) #2 comdat align 2 {
  %2 = alloca ptr, align 8
  %3 = alloca i32, align 4
  store ptr %0, ptr %2, align 8, !tbaa !2554
  %4 = load ptr, ptr %2, align 8
  call void @llvm.lifetime.start.p0(i64 4, ptr %3) #4
  store i32 1, ptr %3, align 4, !tbaa !4
  %5 = getelementptr inbounds nuw %"class.Luau::Variant.968", ptr %4, i32 0, i32 0
  %6 = load i32, ptr %5, align 8, !tbaa !2556
  %7 = icmp eq i32 1, %6
  br i1 %7, label %8, label %10

8:                                                ; preds = %1
  %9 = getelementptr inbounds nuw %"class.Luau::Variant.968", ptr %4, i32 0, i32 2
  br label %11

10:                                               ; preds = %1
  br label %11

11:                                               ; preds = %10, %8
  %12 = phi ptr [ %9, %8 ], [ null, %10 ]
  call void @llvm.lifetime.end.p0(i64 4, ptr %3) #4
  ret ptr %12
}

; Function Attrs: mustprogress uwtable
define linkonce_odr dso_local noundef ptr @_ZN4Luau6get_ifINS_9Unifiable5ErrorIPKNS_4TypeEEEJNS1_5BoundIS5_EES6_NS_8FreeTypeENS_11GenericTypeENS_13PrimitiveTypeENS_13SingletonTypeENS_11BlockedTypeENS_20PendingExpansionTypeENS_12FunctionTypeENS_9TableTypeENS_13MetatableTypeENS_9ClassTypeENS_7AnyTypeENS_9UnionTypeENS_16IntersectionTypeENS_8LazyTypeENS_11UnknownTypeENS_9NeverTypeENS_12NegationTypeENS_12NoRefineTypeENS_24TypeFunctionInstanceTypeEEEEPKT_PKNS_7VariantIJDpT0_EEE(ptr noundef %0) #7 comdat {
  %2 = alloca ptr, align 8
  store ptr %0, ptr %2, align 8, !tbaa !2554
  %3 = load ptr, ptr %2, align 8, !tbaa !2554
  %4 = icmp ne ptr %3, null
  br i1 %4, label %5, label %8

5:                                                ; preds = %1
  %6 = load ptr, ptr %2, align 8, !tbaa !2554
  %7 = call noundef ptr @_ZNK4Luau7VariantIJNS_9Unifiable5BoundIPKNS_4TypeEEENS1_5ErrorIS5_EENS_8FreeTypeENS_11GenericTypeENS_13PrimitiveTypeENS_13SingletonTypeENS_11BlockedTypeENS_20PendingExpansionTypeENS_12FunctionTypeENS_9TableTypeENS_13MetatableTypeENS_9ClassTypeENS_7AnyTypeENS_9UnionTypeENS_16IntersectionTypeENS_8LazyTypeENS_11UnknownTypeENS_9NeverTypeENS_12NegationTypeENS_12NoRefineTypeENS_24TypeFunctionInstanceTypeEEE6get_ifIS8_EEPKT_v(ptr noundef nonnull align 8 dereferenceable(344) %6)
  br label %9

8:                                                ; preds = %1
  br label %9

9:                                                ; preds = %8, %5
  %10 = phi ptr [ %7, %5 ], [ null, %8 ]
  ret ptr %10
}

; Function Attrs: mustprogress uwtable
define linkonce_odr dso_local noundef ptr @_ZN4Luau3getINS_9Unifiable5ErrorIPKNS_4TypeEEEEEPKT_S5_(ptr noundef %0) #7 comdat {
  %2 = alloca ptr, align 8
  store ptr %0, ptr %2, align 8, !tbaa !243
  %3 = load ptr, ptr %2, align 8, !tbaa !243
  %4 = getelementptr inbounds nuw %"struct.Luau::Type", ptr %3, i32 0, i32 0
  %5 = call noundef ptr @_ZN4Luau6get_ifINS_9Unifiable5ErrorIPKNS_4TypeEEEJNS1_5BoundIS5_EES6_NS_8FreeTypeENS_11GenericTypeENS_13PrimitiveTypeENS_13SingletonTypeENS_11BlockedTypeENS_20PendingExpansionTypeENS_12FunctionTypeENS_9TableTypeENS_13MetatableTypeENS_9ClassTypeENS_7AnyTypeENS_9UnionTypeENS_16IntersectionTypeENS_8LazyTypeENS_11UnknownTypeENS_9NeverTypeENS_12NegationTypeENS_12NoRefineTypeENS_24TypeFunctionInstanceTypeEEEEPKT_PKNS_7VariantIJDpT0_EEE(ptr noundef %4)
  ret ptr %5
}

; Function Attrs: mustprogress uwtable
define dso_local noundef zeroext i1 @_ZN4Luau12TypeChecker220allowsNoReturnValuesEPKNS_11TypePackVarE(ptr noundef %0) #7 align 2 {
  %2 = alloca i1, align 1
  %3 = alloca ptr, align 8
  %4 = alloca ptr, align 8
  %5 = alloca %"struct.Luau::TypePackIterator", align 8
  %6 = alloca %"struct.Luau::TypePackIterator", align 8
  %7 = alloca i32, align 4
  %8 = alloca ptr, align 8
  store ptr %0, ptr %3, align 8, !tbaa !281
  call void @llvm.lifetime.start.p0(i64 8, ptr %4) #4
  store ptr %3, ptr %4, align 8, !tbaa !282
  call void @llvm.lifetime.start.p0(i64 32, ptr %5) #4
  %9 = load ptr, ptr %4, align 8, !tbaa !282
  %10 = load ptr, ptr %9, align 8, !tbaa !281
  call void @_ZN4Luau5beginEPKNS_11TypePackVarE(ptr dead_on_unwind writable sret(%"struct.Luau::TypePackIterator") align 8 %5, ptr noundef %10)
  call void @llvm.lifetime.start.p0(i64 32, ptr %6) #4
  %11 = load ptr, ptr %4, align 8, !tbaa !282
  %12 = load ptr, ptr %11, align 8, !tbaa !281
  call void @_ZN4Luau3endEPKNS_11TypePackVarE(ptr dead_on_unwind writable sret(%"struct.Luau::TypePackIterator") align 8 %6, ptr noundef %12)
  br label %13

13:                                               ; preds = %28, %1
  %14 = call noundef zeroext i1 @_ZN4Luau16TypePackIteratorneERKS0_(ptr noundef nonnull align 8 dereferenceable(32) %5, ptr noundef nonnull align 8 dereferenceable(32) %6)
  br i1 %14, label %16, label %15

15:                                               ; preds = %13
  store i32 2, ptr %7, align 4
  br label %30

16:                                               ; preds = %13
  call void @llvm.lifetime.start.p0(i64 8, ptr %8) #4
  %17 = call noundef nonnull align 8 dereferenceable(8) ptr @_ZN4Luau16TypePackIteratordeEv(ptr noundef nonnull align 8 dereferenceable(32) %5)
  %18 = load ptr, ptr %17, align 8, !tbaa !243
  store ptr %18, ptr %8, align 8, !tbaa !243
  %19 = load ptr, ptr %8, align 8, !tbaa !243
  %20 = call noundef ptr @_ZN4Luau6followEPKNS_4TypeE(ptr noundef %19)
  %21 = call noundef ptr @_ZN4Luau3getINS_9Unifiable5ErrorIPKNS_4TypeEEEEEPKT_S5_(ptr noundef %20)
  %22 = icmp ne ptr %21, null
  br i1 %22, label %24, label %23

23:                                               ; preds = %16
  store i1 false, ptr %2, align 1
  store i32 1, ptr %7, align 4
  br label %25

24:                                               ; preds = %16
  store i32 0, ptr %7, align 4
  br label %25

25:                                               ; preds = %24, %23
  call void @llvm.lifetime.end.p0(i64 8, ptr %8) #4
  %26 = load i32, ptr %7, align 4
  switch i32 %26, label %30 [
    i32 0, label %27
  ]

27:                                               ; preds = %25
  br label %28

28:                                               ; preds = %27
  %29 = call noundef nonnull align 8 dereferenceable(32) ptr @_ZN4Luau16TypePackIteratorppEv(ptr noundef nonnull align 8 dereferenceable(32) %5)
  br label %13

30:                                               ; preds = %25, %15
  call void @llvm.lifetime.end.p0(i64 32, ptr %6) #4
  call void @llvm.lifetime.end.p0(i64 32, ptr %5) #4
  call void @llvm.lifetime.end.p0(i64 8, ptr %4) #4
  %31 = load i32, ptr %7, align 4
  switch i32 %31, label %35 [
    i32 2, label %32
    i32 1, label %33
  ]

32:                                               ; preds = %30
  store i1 true, ptr %2, align 1
  br label %33

33:                                               ; preds = %32, %30
  %34 = load i1, ptr %2, align 1
  ret i1 %34

35:                                               ; preds = %30
  unreachable
}