; Function Attrs: mustprogress uwtable
define dso_local noundef zeroext i1 @_ZN4Luau12TypeChecker220allowsNoReturnValuesEPKNS_11TypePackVarE(ptr noundef %0) local_unnamed_addr #5 align 2 {
  %2 = alloca %"struct.Luau::TypePackIterator", align 8
  %3 = alloca %"struct.Luau::TypePackIterator", align 8
  call void @llvm.lifetime.start.p0(i64 32, ptr nonnull %2) #33
  call void @_ZN4Luau5beginEPKNS_11TypePackVarE(ptr dead_on_unwind nonnull writable sret(%"struct.Luau::TypePackIterator") align 8 %2, ptr noundef %0)
  call void @llvm.lifetime.start.p0(i64 32, ptr nonnull %3) #33
  call void @_ZN4Luau3endEPKNS_11TypePackVarE(ptr dead_on_unwind nonnull writable sret(%"struct.Luau::TypePackIterator") align 8 %3, ptr noundef %0)
  %4 = call noundef zeroext i1 @_ZN4Luau16TypePackIteratorneERKS0_(ptr noundef nonnull align 8 dereferenceable(32) %2, ptr noundef nonnull align 8 dereferenceable(32) %3)
  br i1 %4, label %.lr.ph, label %_ZN4Luau3getINS_9Unifiable5ErrorIPKNS_4TypeEEEEEPKT_S5_.exit.thread

.lr.ph:                                           ; preds = %1, %_ZN4Luau3getINS_9Unifiable5ErrorIPKNS_4TypeEEEEEPKT_S5_.exit
  %5 = call noundef nonnull align 8 dereferenceable(8) ptr @_ZN4Luau16TypePackIteratordeEv(ptr noundef nonnull align 8 dereferenceable(32) %2)
  %6 = load ptr, ptr %5, align 8, !tbaa !232
  %7 = call noundef ptr @_ZN4Luau6followEPKNS_4TypeE(ptr noundef %6)
  %.not.i.i = icmp eq ptr %7, null
  br i1 %.not.i.i, label %_ZN4Luau3getINS_9Unifiable5ErrorIPKNS_4TypeEEEEEPKT_S5_.exit.thread, label %8

8:                                                ; preds = %.lr.ph
  %9 = load i32, ptr %7, align 8, !tbaa !233
  %10 = icmp eq i32 %9, 1
  br i1 %10, label %_ZN4Luau3getINS_9Unifiable5ErrorIPKNS_4TypeEEEEEPKT_S5_.exit, label %_ZN4Luau3getINS_9Unifiable5ErrorIPKNS_4TypeEEEEEPKT_S5_.exit.thread

_ZN4Luau3getINS_9Unifiable5ErrorIPKNS_4TypeEEEEEPKT_S5_.exit: ; preds = %8
  %11 = call noundef nonnull align 8 dereferenceable(32) ptr @_ZN4Luau16TypePackIteratorppEv(ptr noundef nonnull align 8 dereferenceable(32) %2)
  %12 = call noundef zeroext i1 @_ZN4Luau16TypePackIteratorneERKS0_(ptr noundef nonnull align 8 dereferenceable(32) %2, ptr noundef nonnull align 8 dereferenceable(32) %3)
  br i1 %12, label %.lr.ph, label %_ZN4Luau3getINS_9Unifiable5ErrorIPKNS_4TypeEEEEEPKT_S5_.exit.thread

_ZN4Luau3getINS_9Unifiable5ErrorIPKNS_4TypeEEEEEPKT_S5_.exit.thread: ; preds = %_ZN4Luau3getINS_9Unifiable5ErrorIPKNS_4TypeEEEEEPKT_S5_.exit, %8, %.lr.ph, %1
  %switch = phi i1 [ true, %1 ], [ false, %.lr.ph ], [ false, %8 ], [ true, %_ZN4Luau3getINS_9Unifiable5ErrorIPKNS_4TypeEEEEEPKT_S5_.exit ]
  call void @llvm.lifetime.end.p0(i64 32, ptr nonnull %3) #33
  call void @llvm.lifetime.end.p0(i64 32, ptr nonnull %2) #33
  ret i1 %switch
}